
code.exe:     file format elf64-x86-64

SYMBOL TABLE:
0000000000000000 l    df *ABS*	0000000000000000 code.o
0000000000402000 l       .data	0000000000000000 nums
0000000000402018 l       .data	0000000000000000 num_count
0000000000402020 l       .data	0000000000000000 sum
0000000000401000 l       .text	0000000000000000 rand_loop_init
000000000040100f l       .text	0000000000000000 rand_loop_head
0000000000401045 l       .text	0000000000000000 rand_loop_after
0000000000401015 l       .text	0000000000000000 rand_loop_body
0000000000401046 l       .text	0000000000000000 sum_loop_init
0000000000401055 l       .text	0000000000000000 sum_loop_head
000000000040107e l       .text	0000000000000000 sum_loop_after
000000000040105a l       .text	0000000000000000 sum_loop_body
000000000040107f l       .text	0000000000000000 prog_exit
0000000000401090 l       .text	0000000000000000 prog_exit2
0000000000401000 g       .text	0000000000000000 _start
0000000000402028 g       .data	0000000000000000 __bss_start
0000000000402028 g       .data	0000000000000000 _edata
0000000000402028 g       .data	0000000000000000 _end



Disassembly of section .text:

0000000000401000 <_start>:
  401000:	49 c7 c4 00 20 40 00 	mov    $0x402000,%r12
  401007:	4c 8b 2c 25 18 20 40 00 	mov    0x402018,%r13

000000000040100f <rand_loop_head>:
  40100f:	49 83 fd 00          	cmp    $0x0,%r13
  401013:	74 30                	je     401045 <rand_loop_after>

0000000000401015 <rand_loop_body>:
  401015:	48 c7 c0 3e 01 00 00 	mov    $0x13e,%rax
  40101c:	4c 89 e7             	mov    %r12,%rdi
  40101f:	48 c7 c6 01 00 00 00 	mov    $0x1,%rsi
  401026:	48 c7 c2 00 00 00 00 	mov    $0x0,%rdx
  40102d:	0f 05                	syscall 
  40102f:	4d 8b 14 24          	mov    (%r12),%r10
  401033:	49 83 e2 0f          	and    $0xf,%r10
  401037:	4d 89 14 24          	mov    %r10,(%r12)
  40103b:	49 83 c4 08          	add    $0x8,%r12
  40103f:	49 83 ed 01          	sub    $0x1,%r13
  401043:	eb ca                	jmp    40100f <rand_loop_head>

0000000000401045 <rand_loop_after>:
  401045:	90                   	nop

0000000000401046 <sum_loop_init>:
  401046:	48 8b 14 25 18 20 40 00 	mov    0x402018,%rdx
  40104e:	48 c7 c1 00 00 00 00 	mov    $0x0,%rcx

0000000000401055 <sum_loop_head>:
  401055:	48 39 d1             	cmp    %rdx,%rcx
  401058:	74 24                	je     40107e <sum_loop_after>

000000000040105a <sum_loop_body>:
  40105a:	48 8b 04 25 20 20 40 00 	mov    0x402020,%rax
  401062:	48 8d 1c cd 00 20 40 00 	lea    0x402000(,%rcx,8),%rbx
  40106a:	48 8b 1b             	mov    (%rbx),%rbx
  40106d:	48 01 d8             	add    %rbx,%rax
  401070:	48 89 04 25 20 20 40 00 	mov    %rax,0x402020
  401078:	48 83 c1 01          	add    $0x1,%rcx
  40107c:	eb d7                	jmp    401055 <sum_loop_head>

000000000040107e <sum_loop_after>:
  40107e:	90                   	nop

000000000040107f <prog_exit>:
  40107f:	48 c7 c0 3c 00 00 00 	mov    $0x3c,%rax
  401086:	48 8b 3c 25 20 20 40 00 	mov    0x402020,%rdi
  40108e:	0f 05                	syscall 

0000000000401090 <prog_exit2>:
  401090:	48 c7 c0 3c 00 00 00 	mov    $0x3c,%rax
  401097:	48 c7 c7 45 00 00 00 	mov    $0x45,%rdi
  40109e:	0f 05                	syscall 
